; Function Attrs: null_pointer_is_valid sspstrong uwtable
define internal range(i32 -268435456, 268435456) i32 @dissect_NAS_PDU_PDU(ptr noundef %0, ptr noundef %1, ptr noundef %2, ptr readnone captures(none) %3) #0 {
  %5 = alloca ptr, align 8
  %6 = alloca %struct._asn1_ctx_t, align 8
  call void @llvm.lifetime.start.p0(i64 208, ptr nonnull %6) #4
  call void @asn1_ctx_init(ptr noundef nonnull %6, i32 noundef 1, i1 noundef zeroext true, ptr noundef %1)
  %7 = load i32, ptr @hf_ranap_NAS_PDU_PDU, align 4
  call void @llvm.lifetime.start.p0(i64 8, ptr nonnull %5) #4
  store ptr null, ptr %5, align 8
  %8 = call i32 @dissect_per_octet_string(ptr noundef %0, i32 noundef 0, ptr noundef nonnull %6, ptr noundef %2, i32 noundef %7, i32 noundef -1, i32 noundef -1, i1 noundef zeroext false, ptr noundef nonnull %5)
  %9 = load ptr, ptr %5, align 8
  %.not.i = icmp eq ptr %9, null
  br i1 %.not.i, label %dissect_ranap_NAS_PDU.exit, label %10

10:                                               ; preds = %4
  %11 = load ptr, ptr @nas_pdu_dissector_table, align 8
  %12 = getelementptr inbounds nuw i8, ptr %6, i64 16
  %13 = load ptr, ptr %12, align 8
  %14 = call ptr @proto_tree_get_root(ptr noundef %2)
  %15 = call i32 @dissector_try_uint(ptr noundef %11, i32 noundef 1, ptr noundef nonnull %9, ptr noundef %13, ptr noundef %14)
  br label %dissect_ranap_NAS_PDU.exit

dissect_ranap_NAS_PDU.exit:                       ; preds = %4, %10
  call void @llvm.lifetime.end.p0(i64 8, ptr nonnull %5) #4
  %16 = add i32 %8, 7
  %17 = ashr i32 %16, 3
  call void @llvm.lifetime.end.p0(i64 208, ptr nonnull %6) #4
  ret i32 %17
}